Certificate:
    Data:
        Version: 3 (0x2)
        Serial Number: 1 (0x1)
        Signature Algorithm: sha256WithRSAEncryption
        Issuer: O=Test Org, CN=Test Org rauc CA Development
        Validity
            Not Before: Jan  1 00:00:00 1970 GMT
            Not After : Dec 31 23:59:59 9999 GMT
        Subject: O=Test Org, CN=Test Org rauc CA Development
        Subject Public Key Info:
            Public Key Algorithm: rsaEncryption
                Public-Key: (2048 bit)
                Modulus:
                    00:cc:7e:ed:68:fc:a5:15:75:70:0c:89:7b:0c:2e:
                    49:59:60:31:93:25:ef:4c:91:08:ce:25:ac:2e:9f:
                    0a:ff:34:04:09:dc:06:bd:27:5a:4f:52:4d:2b:29:
                    83:94:eb:fa:c6:38:2b:5f:73:1a:e7:c0:5e:9f:10:
                    d9:7f:a4:b3:61:53:33:a4:3e:06:30:76:d4:b7:18:
                    81:ff:ef:bc:14:61:16:b2:a3:78:9c:87:43:fd:e9:
                    39:8b:a1:aa:0d:ea:d6:67:14:b3:fd:b2:e0:d3:98:
                    e4:ac:57:7a:e7:2c:ec:29:ab:a0:a3:9b:64:0e:79:
                    38:7a:21:0b:15:11:66:1f:81:7f:74:5c:cf:40:6d:
                    ee:d9:61:d4:75:f3:ff:9b:16:de:30:f8:fa:9b:c0:
                    6a:8a:01:5a:79:ac:88:79:27:01:ee:1c:f9:ee:13:
                    c5:e7:f8:66:6f:bc:97:5b:f9:ce:7f:6c:7b:3e:59:
                    24:7a:fb:b5:c6:30:1b:7a:59:9d:36:14:50:ec:fb:
                    62:fa:d1:31:57:dd:39:83:b8:12:bc:6e:09:e4:32:
                    d3:73:58:b3:1c:8b:d8:d3:c8:b7:f8:c4:b4:0c:cb:
                    73:62:0f:19:ae:6c:45:54:8d:85:c6:00:b0:9d:f3:
                    f8:22:1c:9a:2e:cc:e2:6c:99:2c:96:06:09:a4:3a:
                    76:af
                Exponent: 65537 (0x10001)
        X509v3 extensions:
            X509v3 Subject Key Identifier: 
                BE:6B:C7:A6:EB:94:2C:4B:CB:4A:36:4E:59:C5:DB:BE:48:45:0E:97
            X509v3 Authority Key Identifier: 
                keyid:BE:6B:C7:A6:EB:94:2C:4B:CB:4A:36:4E:59:C5:DB:BE:48:45:0E:97
                DirName:/O=Test Org/CN=Test Org rauc CA Development
                serial:01
            X509v3 Basic Constraints: 
                CA:TRUE
    Signature Algorithm: sha256WithRSAEncryption
    Signature Value:
        4c:ca:33:e5:9a:60:c8:c4:bc:63:97:6d:98:c7:42:fb:f7:15:
        52:8a:64:23:4c:63:dd:ef:e7:7e:4e:8b:ac:7f:70:b6:36:be:
        29:9a:03:b0:1b:f9:7a:9c:a5:80:fc:40:c4:84:ed:aa:c3:7e:
        f0:85:56:0f:6a:c6:b8:bb:bd:26:8c:96:32:b4:d2:ba:3d:56:
        b0:d4:0c:a7:f0:e1:ba:9c:90:56:91:7c:f6:3f:2d:36:b1:79:
        bb:51:ea:45:62:c5:bb:0c:41:e1:bf:1a:df:5d:ef:1d:21:8f:
        6f:ea:bf:ad:19:b9:3f:e7:94:c4:3f:bb:68:6e:4c:80:84:d6:
        1d:ca:e3:5d:7a:fa:a5:76:8e:c1:e5:0a:49:5e:f6:4a:84:fd:
        d5:72:3f:62:2a:42:67:b8:15:a1:03:9a:65:39:4b:b2:34:df:
        65:dd:e6:a3:47:b8:27:e1:25:26:7c:70:d0:6b:ec:0e:0a:07:
        7f:23:e7:89:a3:74:3f:a5:21:f0:17:bc:b5:7c:6b:01:e5:d5:
        2d:f9:d7:00:2d:6d:79:2b:ad:12:be:1e:15:45:54:61:bf:2f:
        b2:31:31:6a:70:bf:84:4c:ac:c2:ec:53:76:3e:6f:8d:c5:a1:
        35:05:17:f6:f7:6e:8a:be:8f:ab:d7:4f:3e:81:07:22:9c:7c:
        07:b3:1f:38
-----BEGIN CERTIFICATE-----
MIIDhjCCAm6gAwIBAgIBATANBgkqhkiG9w0BAQsFADA6MREwDwYDVQQKDAhUZXN0
IE9yZzElMCMGA1UEAwwcVGVzdCBPcmcgcmF1YyBDQSBEZXZlbG9wbWVudDAgFw03
MDAxMDEwMDAwMDBaGA85OTk5MTIzMTIzNTk1OVowOjERMA8GA1UECgwIVGVzdCBP
cmcxJTAjBgNVBAMMHFRlc3QgT3JnIHJhdWMgQ0EgRGV2ZWxvcG1lbnQwggEiMA0G
CSqGSIb3DQEBAQUAA4IBDwAwggEKAoIBAQDMfu1o/KUVdXAMiXsMLklZYDGTJe9M
kQjOJawunwr/NAQJ3Aa9J1pPUk0rKYOU6/rGOCtfcxrnwF6fENl/pLNhUzOkPgYw
dtS3GIH/77wUYRayo3ich0P96TmLoaoN6tZnFLP9suDTmOSsV3rnLOwpq6Cjm2QO
eTh6IQsVEWYfgX90XM9Abe7ZYdR18/+bFt4w+PqbwGqKAVp5rIh5JwHuHPnuE8Xn
+GZvvJdb+c5/bHs+WSR6+7XGMBt6WZ02FFDs+2L60TFX3TmDuBK8bgnkMtNzWLMc
i9jTyLf4xLQMy3NiDxmubEVUjYXGALCd8/giHJouzOJsmSyWBgmkOnavAgMBAAGj
gZQwgZEwHQYDVR0OBBYEFL5rx6brlCxLy0o2TlnF275IRQ6XMGIGA1UdIwRbMFmA
FL5rx6brlCxLy0o2TlnF275IRQ6XoT6kPDA6MREwDwYDVQQKDAhUZXN0IE9yZzEl
MCMGA1UEAwwcVGVzdCBPcmcgcmF1YyBDQSBEZXZlbG9wbWVudIIBATAMBgNVHRME
BTADAQH/MA0GCSqGSIb3DQEBCwUAA4IBAQBMyjPlmmDIxLxjl22Yx0L79xVSimQj
TGPd7+d+Tousf3C2Nr4pmgOwG/l6nKWA/EDEhO2qw37whVYPasa4u70mjJYytNK6
PVaw1Ayn8OG6nJBWkXz2Py02sXm7UepFYsW7DEHhvxrfXe8dIY9v6r+tGbk/55TE
P7tobkyAhNYdyuNdevqldo7B5QpJXvZKhP3Vcj9iKkJnuBWhA5plOUuyNN9l3eaj
R7gn4SUmfHDQa+wOCgd/I+eJo3Q/pSHwF7y1fGsB5dUt+dcALW15K60Svh4VRVRh
vy+yMTFqcL+ETKzC7FN2Pm+NxaE1BRf2926Kvo+r108+gQcinHwHsx84
-----END CERTIFICATE-----
